; Function Attrs: mustprogress uwtable
define void @_ZN5arrow2io21CompressedInputStream17ReadMetadataAsyncERKNS0_9IOContextE(ptr noalias sret(%"class.arrow::Future") align 8 %agg.result, ptr nocapture noundef nonnull readonly align 8 dereferenceable(32) %this, ptr noundef nonnull align 8 dereferenceable(40) %io_context) unnamed_addr #0 align 2 personality ptr @__gxx_personality_v0 {
entry:
  %ref.tmp = alloca %"class.std::shared_ptr.36", align 8
  %impl_ = getelementptr inbounds i8, ptr %this, i64 24
  %0 = load ptr, ptr %impl_, align 8
  tail call void @llvm.experimental.noalias.scope.decl(metadata !162)
  %raw_.i = getelementptr inbounds i8, ptr %0, i64 8
  %1 = load ptr, ptr %raw_.i, align 8, !noalias !162
  store ptr %1, ptr %ref.tmp, align 8, !alias.scope !162
  %_M_refcount.i.i.i = getelementptr inbounds i8, ptr %ref.tmp, i64 8
  %_M_refcount3.i.i.i = getelementptr inbounds i8, ptr %0, i64 16
  %2 = load ptr, ptr %_M_refcount3.i.i.i, align 8, !noalias !162
  store ptr %2, ptr %_M_refcount.i.i.i, align 8, !alias.scope !162
  %cmp.not.i.i.i.i = icmp eq ptr %2, null
  br i1 %cmp.not.i.i.i.i, label %_ZNK5arrow2io21CompressedInputStream4Impl3rawEv.exit, label %if.then.i.i.i.i

if.then.i.i.i.i:                                  ; preds = %entry
  %_M_use_count.i.i.i.i.i = getelementptr inbounds i8, ptr %2, i64 8
  %3 = load i8, ptr @__libc_single_threaded, align 1, !noalias !162
  %tobool.i.not.i.i.i.i.i = icmp eq i8 %3, 0
  br i1 %tobool.i.not.i.i.i.i.i, label %if.else.i.i.i.i.i.i, label %if.then.i.i.i.i.i.i

if.then.i.i.i.i.i.i:                              ; preds = %if.then.i.i.i.i
  %4 = load i32, ptr %_M_use_count.i.i.i.i.i, align 4, !noalias !162
  %add.i.i.i.i.i.i = add nsw i32 %4, 1
  store i32 %add.i.i.i.i.i.i, ptr %_M_use_count.i.i.i.i.i, align 4, !noalias !162
  br label %_ZNK5arrow2io21CompressedInputStream4Impl3rawEv.exit

if.else.i.i.i.i.i.i:                              ; preds = %if.then.i.i.i.i
  %5 = atomicrmw volatile add ptr %_M_use_count.i.i.i.i.i, i32 1 acq_rel, align 4, !noalias !162
  %.pre = load ptr, ptr %ref.tmp, align 8
  br label %_ZNK5arrow2io21CompressedInputStream4Impl3rawEv.exit

_ZNK5arrow2io21CompressedInputStream4Impl3rawEv.exit: ; preds = %entry, %if.then.i.i.i.i.i.i, %if.else.i.i.i.i.i.i
  %6 = phi ptr [ %1, %entry ], [ %1, %if.then.i.i.i.i.i.i ], [ %.pre, %if.else.i.i.i.i.i.i ]
  %vtable = load ptr, ptr %6, align 8
  %vfn = getelementptr inbounds i8, ptr %vtable, i64 64
  %7 = load ptr, ptr %vfn, align 8
  invoke void %7(ptr sret(%"class.arrow::Future") align 8 %agg.result, ptr noundef nonnull align 8 dereferenceable(8) %6, ptr noundef nonnull align 8 dereferenceable(40) %io_context)
          to label %invoke.cont unwind label %lpad

invoke.cont:                                      ; preds = %_ZNK5arrow2io21CompressedInputStream4Impl3rawEv.exit
  %8 = load ptr, ptr %_M_refcount.i.i.i, align 8
  %cmp.not.i.i.i = icmp eq ptr %8, null
  br i1 %cmp.not.i.i.i, label %_ZNSt10shared_ptrIN5arrow2io11InputStreamEED2Ev.exit, label %if.then.i.i.i

if.then.i.i.i:                                    ; preds = %invoke.cont
  %_M_use_count.i.i.i.i = getelementptr inbounds i8, ptr %8, i64 8
  %9 = load atomic i64, ptr %_M_use_count.i.i.i.i acquire, align 8
  %cmp.i.i.i.i = icmp eq i64 %9, 4294967297
  %10 = trunc i64 %9 to i32
  br i1 %cmp.i.i.i.i, label %if.then.i.i.i.i1, label %if.end.i.i.i.i

if.then.i.i.i.i1:                                 ; preds = %if.then.i.i.i
  store i32 0, ptr %_M_use_count.i.i.i.i, align 8
  %_M_weak_count.i.i.i.i = getelementptr inbounds i8, ptr %8, i64 12
  store i32 0, ptr %_M_weak_count.i.i.i.i, align 4
  %vtable.i.i.i.i = load ptr, ptr %8, align 8
  %vfn.i.i.i.i = getelementptr inbounds i8, ptr %vtable.i.i.i.i, i64 16
  %11 = load ptr, ptr %vfn.i.i.i.i, align 8
  tail call void %11(ptr noundef nonnull align 8 dereferenceable(16) %8) #21
  br label %if.end8.sink.split.i.i.i.i

if.end.i.i.i.i:                                   ; preds = %if.then.i.i.i
  %12 = load i8, ptr @__libc_single_threaded, align 1
  %tobool.i.i.not.i.i.i.i = icmp eq i8 %12, 0
  br i1 %tobool.i.i.not.i.i.i.i, label %if.else.i.i.i.i.i, label %if.then.i.i.i.i.i

if.then.i.i.i.i.i:                                ; preds = %if.end.i.i.i.i
  %add.i.i.i.i.i = add nsw i32 %10, -1
  store i32 %add.i.i.i.i.i, ptr %_M_use_count.i.i.i.i, align 4
  br label %_ZN9__gnu_cxx27__exchange_and_add_dispatchEPii.exit.i.i.i.i

if.else.i.i.i.i.i:                                ; preds = %if.end.i.i.i.i
  %13 = atomicrmw volatile add ptr %_M_use_count.i.i.i.i, i32 -1 acq_rel, align 4
  br label %_ZN9__gnu_cxx27__exchange_and_add_dispatchEPii.exit.i.i.i.i

_ZN9__gnu_cxx27__exchange_and_add_dispatchEPii.exit.i.i.i.i: ; preds = %if.else.i.i.i.i.i, %if.then.i.i.i.i.i
  %retval.i.0.i.i.i.i = phi i32 [ %10, %if.then.i.i.i.i.i ], [ %13, %if.else.i.i.i.i.i ]
  %cmp6.i.i.i.i = icmp eq i32 %retval.i.0.i.i.i.i, 1
  br i1 %cmp6.i.i.i.i, label %if.then7.i.i.i.i, label %_ZNSt10shared_ptrIN5arrow2io11InputStreamEED2Ev.exit

if.then7.i.i.i.i:                                 ; preds = %_ZN9__gnu_cxx27__exchange_and_add_dispatchEPii.exit.i.i.i.i
  %vtable.i.i.i.i.i.i = load ptr, ptr %8, align 8
  %vfn.i.i.i.i.i.i = getelementptr inbounds i8, ptr %vtable.i.i.i.i.i.i, i64 16
  %14 = load ptr, ptr %vfn.i.i.i.i.i.i, align 8
  tail call void %14(ptr noundef nonnull align 8 dereferenceable(16) %8) #21
  %_M_weak_count.i.i.i.i.i.i = getelementptr inbounds i8, ptr %8, i64 12
  %15 = load i8, ptr @__libc_single_threaded, align 1
  %tobool.i.i.not.i.i.i.i.i.i = icmp eq i8 %15, 0
  br i1 %tobool.i.i.not.i.i.i.i.i.i, label %if.else.i.i.i.i.i.i.i, label %if.then.i.i.i.i.i.i.i

if.then.i.i.i.i.i.i.i:                            ; preds = %if.then7.i.i.i.i
  %16 = load i32, ptr %_M_weak_count.i.i.i.i.i.i, align 4
  %add.i.i.i.i.i.i.i = add nsw i32 %16, -1
  store i32 %add.i.i.i.i.i.i.i, ptr %_M_weak_count.i.i.i.i.i.i, align 4
  br label %_ZN9__gnu_cxx27__exchange_and_add_dispatchEPii.exit.i.i.i.i.i.i

if.else.i.i.i.i.i.i.i:                            ; preds = %if.then7.i.i.i.i
  %17 = atomicrmw volatile add ptr %_M_weak_count.i.i.i.i.i.i, i32 -1 acq_rel, align 4
  br label %_ZN9__gnu_cxx27__exchange_and_add_dispatchEPii.exit.i.i.i.i.i.i

_ZN9__gnu_cxx27__exchange_and_add_dispatchEPii.exit.i.i.i.i.i.i: ; preds = %if.else.i.i.i.i.i.i.i, %if.then.i.i.i.i.i.i.i
  %retval.i.0.i.i.i.i.i.i = phi i32 [ %16, %if.then.i.i.i.i.i.i.i ], [ %17, %if.else.i.i.i.i.i.i.i ]
  %cmp.i.i.i.i.i.i = icmp eq i32 %retval.i.0.i.i.i.i.i.i, 1
  br i1 %cmp.i.i.i.i.i.i, label %if.end8.sink.split.i.i.i.i, label %_ZNSt10shared_ptrIN5arrow2io11InputStreamEED2Ev.exit

if.end8.sink.split.i.i.i.i:                       ; preds = %_ZN9__gnu_cxx27__exchange_and_add_dispatchEPii.exit.i.i.i.i.i.i, %if.then.i.i.i.i1
  %vtable2.i.i.i.i.i.i = load ptr, ptr %8, align 8
  %vfn3.i.i.i.i.i.i = getelementptr inbounds i8, ptr %vtable2.i.i.i.i.i.i, i64 24
  %18 = load ptr, ptr %vfn3.i.i.i.i.i.i, align 8
  tail call void %18(ptr noundef nonnull align 8 dereferenceable(16) %8) #21
  br label %_ZNSt10shared_ptrIN5arrow2io11InputStreamEED2Ev.exit

_ZNSt10shared_ptrIN5arrow2io11InputStreamEED2Ev.exit: ; preds = %invoke.cont, %_ZN9__gnu_cxx27__exchange_and_add_dispatchEPii.exit.i.i.i.i, %_ZN9__gnu_cxx27__exchange_and_add_dispatchEPii.exit.i.i.i.i.i.i, %if.end8.sink.split.i.i.i.i
  ret void

lpad:                                             ; preds = %_ZNK5arrow2io21CompressedInputStream4Impl3rawEv.exit
  %19 = landingpad { ptr, i32 }
          cleanup
  call void @_ZNSt10shared_ptrIN5arrow2io11InputStreamEED2Ev(ptr noundef nonnull align 8 dereferenceable(16) %ref.tmp) #21
  resume { ptr, i32 } %19
}